target datalayout = "e-m:e-p270:32:32-p271:32:32-p272:64:64-i64:64-i128:128-f80:128-n8:16:32:64-S128"
target triple = "x86_64-pc-linux-gnu"

%struct._lv_font_t = type { ptr, ptr, ptr, i32, i32, i8, i8, i8, ptr, ptr, ptr }
%struct.lv_color_t = type { i8, i8, i8 }
%struct.lv_draw_rect_dsc_t = type { %struct.lv_draw_dsc_base_t, i32, i8, %struct.lv_color_t, %struct.lv_grad_dsc_t, ptr, ptr, %struct.lv_color_t, i8, i8, i8, %struct.lv_color_t, i32, i8, i8, %struct.lv_color_t, i32, i32, i8, %struct.lv_color_t, i32, i32, i32, i32, i8 }
%struct.lv_draw_dsc_base_t = type { ptr, i32, i32, i32, ptr, i64, ptr }
%struct.lv_grad_dsc_t = type { [2 x %struct.lv_grad_stop_t], i8, i8 }
%struct.lv_grad_stop_t = type { %struct.lv_color_t, i8, i8 }

@lv_font_montserrat_14 = external constant %struct._lv_font_t, align 8

; Function Attrs: inlinehint nounwind uwtable
define internal void @lv_memzero(ptr noundef %0, i64 noundef %1) #1 {
  %3 = alloca ptr, align 8
  %4 = alloca i64, align 8
  store ptr %0, ptr %3, align 8, !tbaa !3
  store i64 %1, ptr %4, align 8, !tbaa !26
  %5 = load ptr, ptr %3, align 8, !tbaa !3
  %6 = load i64, ptr %4, align 8, !tbaa !26
  call void @lv_memset(ptr noundef %5, i8 noundef zeroext 0, i64 noundef %6)
  ret void
}

; Function Attrs: nounwind uwtable
define void @lv_draw_rect_dsc_init(ptr noundef %0) #0 {
  %2 = alloca ptr, align 8
  %3 = alloca %struct.lv_color_t, align 1
  %4 = alloca %struct.lv_color_t, align 1
  %5 = alloca %struct.lv_color_t, align 1
  %6 = alloca %struct.lv_color_t, align 1
  %7 = alloca %struct.lv_color_t, align 1
  store ptr %0, ptr %2, align 8, !tbaa !3
  %8 = load ptr, ptr %2, align 8, !tbaa !3
  call void @lv_memzero(ptr noundef %8, i64 noundef 144)
  %9 = load ptr, ptr %2, align 8, !tbaa !3
  %10 = getelementptr inbounds nuw %struct.lv_draw_rect_dsc_t, ptr %9, i32 0, i32 3
  call void @llvm.lifetime.start.p0(i64 3, ptr %3) #5
  %11 = call i24 @lv_color_white()
  store i24 %11, ptr %3, align 1
  call void @llvm.memcpy.p0.p0.i64(ptr align 1 %10, ptr align 1 %3, i64 3, i1 false), !tbaa.struct !7
  call void @llvm.lifetime.end.p0(i64 3, ptr %3) #5
  %12 = load ptr, ptr %2, align 8, !tbaa !3
  %13 = getelementptr inbounds nuw %struct.lv_draw_rect_dsc_t, ptr %12, i32 0, i32 4
  %14 = getelementptr inbounds nuw %struct.lv_grad_dsc_t, ptr %13, i32 0, i32 0
  %15 = getelementptr inbounds [2 x %struct.lv_grad_stop_t], ptr %14, i64 0, i64 0
  %16 = getelementptr inbounds nuw %struct.lv_grad_stop_t, ptr %15, i32 0, i32 0
  call void @llvm.lifetime.start.p0(i64 3, ptr %4) #5
  %17 = call i24 @lv_color_white()
  store i24 %17, ptr %4, align 1
  call void @llvm.memcpy.p0.p0.i64(ptr align 8 %16, ptr align 1 %4, i64 3, i1 false), !tbaa.struct !7
  call void @llvm.lifetime.end.p0(i64 3, ptr %4) #5
  %18 = load ptr, ptr %2, align 8, !tbaa !3
  %19 = getelementptr inbounds nuw %struct.lv_draw_rect_dsc_t, ptr %18, i32 0, i32 4
  %20 = getelementptr inbounds nuw %struct.lv_grad_dsc_t, ptr %19, i32 0, i32 0
  %21 = getelementptr inbounds [2 x %struct.lv_grad_stop_t], ptr %20, i64 0, i64 1
  %22 = getelementptr inbounds nuw %struct.lv_grad_stop_t, ptr %21, i32 0, i32 0
  call void @llvm.lifetime.start.p0(i64 3, ptr %5) #5
  %23 = call i24 @lv_color_black()
  store i24 %23, ptr %5, align 1
  call void @llvm.memcpy.p0.p0.i64(ptr align 1 %22, ptr align 1 %5, i64 3, i1 false), !tbaa.struct !7
  call void @llvm.lifetime.end.p0(i64 3, ptr %5) #5
  %24 = load ptr, ptr %2, align 8, !tbaa !3
  %25 = getelementptr inbounds nuw %struct.lv_draw_rect_dsc_t, ptr %24, i32 0, i32 4
  %26 = getelementptr inbounds nuw %struct.lv_grad_dsc_t, ptr %25, i32 0, i32 0
  %27 = getelementptr inbounds [2 x %struct.lv_grad_stop_t], ptr %26, i64 0, i64 1
  %28 = getelementptr inbounds nuw %struct.lv_grad_stop_t, ptr %27, i32 0, i32 2
  store i8 -1, ptr %28, align 1, !tbaa !9
  %29 = load ptr, ptr %2, align 8, !tbaa !3
  %30 = getelementptr inbounds nuw %struct.lv_draw_rect_dsc_t, ptr %29, i32 0, i32 4
  %31 = getelementptr inbounds nuw %struct.lv_grad_dsc_t, ptr %30, i32 0, i32 1
  store i8 2, ptr %31, align 2, !tbaa !12
  %32 = load ptr, ptr %2, align 8, !tbaa !3
  %33 = getelementptr inbounds nuw %struct.lv_draw_rect_dsc_t, ptr %32, i32 0, i32 11
  call void @llvm.lifetime.start.p0(i64 3, ptr %6) #5
  %34 = call i24 @lv_color_black()
  store i24 %34, ptr %6, align 1
  call void @llvm.memcpy.p0.p0.i64(ptr align 2 %33, ptr align 1 %6, i64 3, i1 false), !tbaa.struct !7
  call void @llvm.lifetime.end.p0(i64 3, ptr %6) #5
  %35 = load ptr, ptr %2, align 8, !tbaa !3
  %36 = getelementptr inbounds nuw %struct.lv_draw_rect_dsc_t, ptr %35, i32 0, i32 19
  call void @llvm.lifetime.start.p0(i64 3, ptr %7) #5
  %37 = call i24 @lv_color_black()
  store i24 %37, ptr %7, align 1
  call void @llvm.memcpy.p0.p0.i64(ptr align 1 %36, ptr align 1 %7, i64 3, i1 false), !tbaa.struct !7
  call void @llvm.lifetime.end.p0(i64 3, ptr %7) #5
  %38 = load ptr, ptr %2, align 8, !tbaa !3
  %39 = getelementptr inbounds nuw %struct.lv_draw_rect_dsc_t, ptr %38, i32 0, i32 6
  store ptr @lv_font_montserrat_14, ptr %39, align 8, !tbaa !20
  %40 = load ptr, ptr %2, align 8, !tbaa !3
  %41 = getelementptr inbounds nuw %struct.lv_draw_rect_dsc_t, ptr %40, i32 0, i32 2
  store i8 -1, ptr %41, align 4, !tbaa !21
  %42 = load ptr, ptr %2, align 8, !tbaa !3
  %43 = getelementptr inbounds nuw %struct.lv_draw_rect_dsc_t, ptr %42, i32 0, i32 8
  store i8 -1, ptr %43, align 1, !tbaa !22
  %44 = load ptr, ptr %2, align 8, !tbaa !3
  %45 = getelementptr inbounds nuw %struct.lv_draw_rect_dsc_t, ptr %44, i32 0, i32 18
  store i8 -1, ptr %45, align 8, !tbaa !23
  %46 = load ptr, ptr %2, align 8, !tbaa !3
  %47 = getelementptr inbounds nuw %struct.lv_draw_rect_dsc_t, ptr %46, i32 0, i32 13
  store i8 -1, ptr %47, align 8, !tbaa !24
  %48 = load ptr, ptr %2, align 8, !tbaa !3
  %49 = getelementptr inbounds nuw %struct.lv_draw_rect_dsc_t, ptr %48, i32 0, i32 24
  store i8 -1, ptr %49, align 4, !tbaa !25
  %50 = load ptr, ptr %2, align 8, !tbaa !3
  %51 = getelementptr inbounds nuw %struct.lv_draw_rect_dsc_t, ptr %50, i32 0, i32 14
  %52 = load i8, ptr %51, align 1
  %53 = and i8 %52, -32
  %54 = or i8 %53, 15
  store i8 %54, ptr %51, align 1
  ret void
}