; Function Attrs: nounwind uwtable
define void @lv_draw_rect_dsc_init(ptr noundef %0) local_unnamed_addr #0 {
  tail call void @lv_memset(ptr noundef %0, i8 noundef zeroext 0, i64 noundef 144) #5
  %2 = getelementptr inbounds nuw i8, ptr %0, i64 53
  %3 = tail call i24 @lv_color_white() #5
  store i24 %3, ptr %2, align 1
  %4 = getelementptr inbounds nuw i8, ptr %0, i64 56
  %5 = tail call i24 @lv_color_white() #5
  store i24 %5, ptr %4, align 8
  %6 = getelementptr inbounds nuw i8, ptr %0, i64 61
  %7 = tail call i24 @lv_color_black() #5
  store i24 %7, ptr %6, align 1
  %8 = getelementptr inbounds nuw i8, ptr %0, i64 65
  store i8 -1, ptr %8, align 1, !tbaa !3
  %9 = getelementptr inbounds nuw i8, ptr %0, i64 66
  store i8 2, ptr %9, align 2, !tbaa !8
  %10 = getelementptr inbounds nuw i8, ptr %0, i64 94
  %11 = tail call i24 @lv_color_black() #5
  store i24 %11, ptr %10, align 2
  %12 = getelementptr inbounds nuw i8, ptr %0, i64 121
  %13 = tail call i24 @lv_color_black() #5
  store i24 %13, ptr %12, align 1
  %14 = getelementptr inbounds nuw i8, ptr %0, i64 80
  store ptr @lv_font_montserrat_14, ptr %14, align 8, !tbaa !17
  %15 = getelementptr inbounds nuw i8, ptr %0, i64 52
  store i8 -1, ptr %15, align 4, !tbaa !18
  %16 = getelementptr inbounds nuw i8, ptr %0, i64 91
  store i8 -1, ptr %16, align 1, !tbaa !19
  %17 = getelementptr inbounds nuw i8, ptr %0, i64 120
  store i8 -1, ptr %17, align 8, !tbaa !20
  %18 = getelementptr inbounds nuw i8, ptr %0, i64 104
  store i8 -1, ptr %18, align 8, !tbaa !21
  %19 = getelementptr inbounds nuw i8, ptr %0, i64 140
  store i8 -1, ptr %19, align 4, !tbaa !22
  %20 = getelementptr inbounds nuw i8, ptr %0, i64 105
  %21 = load i8, ptr %20, align 1
  %22 = and i8 %21, -32
  %23 = or disjoint i8 %22, 15
  store i8 %23, ptr %20, align 1
  ret void
}